; Function Attrs: nounwind uwtable
define void @Cec2_CollectSuper_rec(ptr noundef %0, ptr noundef %1, ptr noundef %2, i32 noundef %3, i32 noundef %4) local_unnamed_addr #2 {
  %6 = ptrtoint ptr %1 to i64
  %7 = and i64 %6, 1
  %.not3262 = icmp eq i64 %7, 0
  br i1 %.not3262, label %.lr.ph.lr.ph, label %tailrecurse.outer._crit_edge

.lr.ph.lr.ph:                                     ; preds = %5
  %8 = getelementptr inbounds nuw i8, ptr %0, i64 144
  %9 = getelementptr i8, ptr %0, i64 32
  %10 = icmp eq i32 %3, 0
  br label %.lr.ph

.lr.ph:                                           ; preds = %.lr.ph.lr.ph, %.split.split.us
  %11 = phi i64 [ %6, %.lr.ph.lr.ph ], [ %43, %.split.split.us ]
  %.tr30.ph65 = phi i32 [ %4, %.lr.ph.lr.ph ], [ 0, %.split.split.us ]
  %.tr29.ph64 = phi i1 [ %10, %.lr.ph.lr.ph ], [ true, %.split.split.us ]
  %.tr27.ph63 = phi ptr [ %1, %.lr.ph.lr.ph ], [ %44, %.split.split.us ]
  %.not22 = icmp eq i32 %.tr30.ph65, 0
  br i1 %.not22, label %.lr.ph.split.us, label %.lr.ph.split

.lr.ph.split.us:                                  ; preds = %.lr.ph
  %.val.us = load i64, ptr %.tr27.ph63, align 4
  %12 = and i64 %.val.us, 2684354559
  %narrow.i.not.us = icmp eq i64 %12, 2684354559
  br i1 %narrow.i.not.us, label %tailrecurse.outer._crit_edge, label %13

13:                                               ; preds = %.lr.ph.split.us
  br i1 %.tr29.ph64, label %14, label %.split.split.us

14:                                               ; preds = %13
  %15 = load ptr, ptr %8, align 8
  %.not21.us = icmp eq ptr %15, null
  br i1 %.not21.us, label %22, label %16

16:                                               ; preds = %14
  %.val24.us = load ptr, ptr %9, align 8
  %17 = ptrtoint ptr %.val24.us to i64
  %18 = sub i64 %11, %17
  %19 = sdiv exact i64 %18, 12
  %sext.i.us = shl i64 %19, 32
  %20 = ashr exact i64 %sext.i.us, 30
  %21 = getelementptr inbounds i8, ptr %15, i64 %20
  br label %24

22:                                               ; preds = %14
  %23 = getelementptr i8, ptr %.tr27.ph63, i64 8
  br label %24

24:                                               ; preds = %22, %16
  %.in.us = phi ptr [ %21, %16 ], [ %23, %22 ]
  %25 = load i32, ptr %.in.us, align 4
  %26 = icmp sgt i32 %25, 1
  br i1 %26, label %tailrecurse.outer._crit_edge, label %.split.split.us

.split.split.us:                                  ; preds = %24, %13
  %27 = and i64 %.val.us, 536870911
  %28 = sub nsw i64 0, %27
  %29 = getelementptr inbounds %struct.Gia_Obj_t_, ptr %.tr27.ph63, i64 %28
  %30 = lshr i64 %.val.us, 29
  %31 = and i64 %30, 1
  %32 = ptrtoint ptr %29 to i64
  %33 = or disjoint i64 %31, %32
  %34 = inttoptr i64 %33 to ptr
  tail call void @Cec2_CollectSuper_rec(ptr noundef %0, ptr noundef nonnull %34, ptr noundef %2, i32 noundef 0, i32 noundef 0)
  %35 = load i64, ptr %.tr27.ph63, align 4
  %36 = lshr i64 %35, 32
  %37 = and i64 %36, 536870911
  %38 = sub nsw i64 0, %37
  %39 = getelementptr inbounds %struct.Gia_Obj_t_, ptr %.tr27.ph63, i64 %38
  %40 = lshr i64 %35, 61
  %41 = and i64 %40, 1
  %42 = ptrtoint ptr %39 to i64
  %43 = or disjoint i64 %41, %42
  %44 = inttoptr i64 %43 to ptr
  %45 = and i64 %43, 1
  %.not32 = icmp eq i64 %45, 0
  br i1 %.not32, label %.lr.ph, label %tailrecurse.outer._crit_edge

.lr.ph.split:                                     ; preds = %.lr.ph, %.split18
  %46 = phi i64 [ %80, %.split18 ], [ %11, %.lr.ph ]
  %.tr2934 = phi i1 [ true, %.split18 ], [ %.tr29.ph64, %.lr.ph ]
  %.tr2733 = phi ptr [ %81, %.split18 ], [ %.tr27.ph63, %.lr.ph ]
  %.val = load i64, ptr %.tr2733, align 4
  %47 = and i64 %.val, 2684354559
  %narrow.i.not = icmp eq i64 %47, 2684354559
  br i1 %narrow.i.not, label %tailrecurse.outer._crit_edge, label %48

48:                                               ; preds = %.lr.ph.split
  br i1 %.tr2934, label %49, label %63

49:                                               ; preds = %48
  %50 = load ptr, ptr %8, align 8
  %.not21 = icmp eq ptr %50, null
  br i1 %.not21, label %57, label %51

51:                                               ; preds = %49
  %.val24 = load ptr, ptr %9, align 8
  %52 = ptrtoint ptr %.val24 to i64
  %53 = sub i64 %46, %52
  %54 = sdiv exact i64 %53, 12
  %sext.i = shl i64 %54, 32
  %55 = ashr exact i64 %sext.i, 30
  %56 = getelementptr inbounds i8, ptr %50, i64 %55
  br label %59

57:                                               ; preds = %49
  %58 = getelementptr i8, ptr %.tr2733, i64 8
  br label %59

59:                                               ; preds = %57, %51
  %.in = phi ptr [ %56, %51 ], [ %58, %57 ]
  %60 = load i32, ptr %.in, align 4
  %61 = icmp slt i32 %60, 2
  %62 = and i64 %.val, 1073741824
  %.not23 = icmp eq i64 %62, 0
  %or.cond = and i1 %61, %.not23
  br i1 %or.cond, label %.split18, label %tailrecurse.outer._crit_edge

63:                                               ; preds = %48
  %.old = and i64 %.val, 1073741824
  %.not23.old = icmp eq i64 %.old, 0
  br i1 %.not23.old, label %.split18, label %tailrecurse.outer._crit_edge

.split18:                                         ; preds = %59, %63
  %64 = and i64 %.val, 536870911
  %65 = sub nsw i64 0, %64
  %66 = getelementptr inbounds %struct.Gia_Obj_t_, ptr %.tr2733, i64 %65
  %67 = lshr i64 %.val, 29
  %68 = and i64 %67, 1
  %69 = ptrtoint ptr %66 to i64
  %70 = or disjoint i64 %68, %69
  %71 = inttoptr i64 %70 to ptr
  tail call void @Cec2_CollectSuper_rec(ptr noundef %0, ptr noundef nonnull %71, ptr noundef %2, i32 noundef 0, i32 noundef %.tr30.ph65)
  %72 = load i64, ptr %.tr2733, align 4
  %73 = lshr i64 %72, 32
  %74 = and i64 %73, 536870911
  %75 = sub nsw i64 0, %74
  %76 = getelementptr inbounds %struct.Gia_Obj_t_, ptr %.tr2733, i64 %75
  %77 = lshr i64 %72, 61
  %78 = and i64 %77, 1
  %79 = ptrtoint ptr %76 to i64
  %80 = or disjoint i64 %78, %79
  %81 = inttoptr i64 %80 to ptr
  %82 = and i64 %80, 1
  %.not = icmp eq i64 %82, 0
  br i1 %.not, label %.lr.ph.split, label %tailrecurse.outer._crit_edge

tailrecurse.outer._crit_edge:                     ; preds = %.lr.ph.split.us, %24, %.split.split.us, %.split18, %.lr.ph.split, %59, %63, %5
  %.tr27.lcssa = phi ptr [ %1, %5 ], [ %.tr2733, %63 ], [ %.tr2733, %59 ], [ %.tr2733, %.lr.ph.split ], [ %81, %.split18 ], [ %44, %.split.split.us ], [ %.tr27.ph63, %24 ], [ %.tr27.ph63, %.lr.ph.split.us ]
  tail call fastcc void @Vec_PtrPushUnique(ptr noundef %2, ptr noundef %.tr27.lcssa)
  ret void
}